target datalayout = "e-m:e-p270:32:32-p271:32:32-p272:64:64-i64:64-i128:128-f80:128-n8:16:32:64-S128"
target triple = "x86_64-pc-linux-gnu"

%class.LogDecorators = type { i32 }
%class.LogFileOutput = type { %class.LogFileStreamOutput, ptr, ptr, ptr, i32, i32, i32, i8, i64, i64, i64, %class.Semaphore }
%class.LogFileStreamOutput = type { %class.LogOutput.base, i8, i8, ptr, [12 x i64] }
%class.LogOutput.base = type <{ ptr, i8, [7 x i8], %class.stringStream, %class.LogDecorators }>
%class.stringStream = type <{ %class.outputStream, ptr, i64, i64, i8, [48 x i8], [7 x i8] }>
%class.outputStream = type { ptr, i32, i8, i32, i64, %class.TimeStamp, ptr, i64 }
%class.TimeStamp = type { i64 }
%class.Semaphore = type { %class.PosixSemaphore }
%class.PosixSemaphore = type { %union.sem_t }
%union.sem_t = type { i64, [24 x i8] }

@.str.4 = private unnamed_addr constant [2 x i8] c"a\00", align 1
@.str.22 = private unnamed_addr constant [51 x i8] c"Error closing file '%s' during log rotation (%s).\0A\00", align 1
@.str.23 = private unnamed_addr constant [54 x i8] c"Could not reopen file '%s' during log rotation (%s).\0A\00", align 1
@DisplayVMOutputToStdout = external global i8, align 1
@_ZN13defaultStream14_output_streamE = external global ptr, align 8
@_ZN13defaultStream13_error_streamE = external global ptr, align 8

; Function Attrs: mustprogress nounwind uwtable
define linkonce_odr hidden void @_ZN13LogFileOutput20increment_file_countEv(ptr noundef nonnull align 8 dereferenceable(360) %0) #1 comdat align 2 {
  %2 = alloca ptr, align 8
  store ptr %0, ptr %2, align 8
  %3 = load ptr, ptr %2, align 8
  %4 = getelementptr inbounds %class.LogFileOutput, ptr %3, i32 0, i32 4
  %5 = load i32, ptr %4, align 8
  %6 = add i32 %5, 1
  store i32 %6, ptr %4, align 8
  %7 = getelementptr inbounds %class.LogFileOutput, ptr %3, i32 0, i32 4
  %8 = load i32, ptr %7, align 8
  %9 = getelementptr inbounds %class.LogFileOutput, ptr %3, i32 0, i32 5
  %10 = load i32, ptr %9, align 4
  %11 = icmp eq i32 %8, %10
  br i1 %11, label %12, label %14

12:                                               ; preds = %1
  %13 = getelementptr inbounds %class.LogFileOutput, ptr %3, i32 0, i32 4
  store i32 0, ptr %13, align 8
  br label %14

14:                                               ; preds = %12, %1
  ret void
}

; Function Attrs: mustprogress nounwind uwtable
define linkonce_odr hidden noundef ptr @_ZN13defaultStream12error_streamEv() #1 comdat align 2 {
  %1 = load i8, ptr @DisplayVMOutputToStdout, align 1
  %2 = trunc i8 %1 to i1
  br i1 %2, label %3, label %5

3:                                                ; preds = %0
  %4 = load ptr, ptr @_ZN13defaultStream14_output_streamE, align 8
  br label %7

5:                                                ; preds = %0
  %6 = load ptr, ptr @_ZN13defaultStream13_error_streamE, align 8
  br label %7

7:                                                ; preds = %5, %3
  %8 = phi ptr [ %4, %3 ], [ %6, %5 ]
  ret ptr %8
}

; Function Attrs: mustprogress nounwind uwtable
define hidden void @_ZN13LogFileOutput6rotateEv(ptr noundef nonnull align 8 dereferenceable(360) %0) #1 align 2 {
  %2 = alloca ptr, align 8
  store ptr %0, ptr %2, align 8
  %3 = load ptr, ptr %2, align 8
  %4 = getelementptr inbounds %class.LogFileStreamOutput, ptr %3, i32 0, i32 3
  %5 = load ptr, ptr %4, align 8
  %6 = call i32 @fclose(ptr noundef %5)
  %7 = icmp ne i32 %6, 0
  br i1 %7, label %8, label %16

8:                                                ; preds = %1
  %9 = call noundef ptr @_ZN13defaultStream12error_streamEv()
  %10 = getelementptr inbounds %class.LogFileOutput, ptr %3, i32 0, i32 2
  %11 = load ptr, ptr %10, align 8
  %12 = call ptr @__errno_location() #10
  %13 = load i32, ptr %12, align 4
  %14 = call noundef ptr @_ZN2os8strerrorEi(i32 noundef %13)
  %15 = call i32 (ptr, ptr, ...) @jio_fprintf(ptr noundef %9, ptr noundef @.str.22, ptr noundef %11, ptr noundef %14)
  br label %16

16:                                               ; preds = %8, %1
  call void @_ZN13LogFileOutput7archiveEv(ptr noundef nonnull align 8 dereferenceable(360) %3)
  %17 = getelementptr inbounds %class.LogFileOutput, ptr %3, i32 0, i32 2
  %18 = load ptr, ptr %17, align 8
  %19 = call noundef ptr @_ZN2os5fopenEPKcS1_(ptr noundef %18, ptr noundef @.str.4)
  %20 = getelementptr inbounds %class.LogFileStreamOutput, ptr %3, i32 0, i32 3
  store ptr %19, ptr %20, align 8
  %21 = getelementptr inbounds %class.LogFileStreamOutput, ptr %3, i32 0, i32 3
  %22 = load ptr, ptr %21, align 8
  %23 = icmp eq ptr %22, null
  br i1 %23, label %24, label %32

24:                                               ; preds = %16
  %25 = call noundef ptr @_ZN13defaultStream12error_streamEv()
  %26 = getelementptr inbounds %class.LogFileOutput, ptr %3, i32 0, i32 2
  %27 = load ptr, ptr %26, align 8
  %28 = call ptr @__errno_location() #10
  %29 = load i32, ptr %28, align 4
  %30 = call noundef ptr @_ZN2os8strerrorEi(i32 noundef %29)
  %31 = call i32 (ptr, ptr, ...) @jio_fprintf(ptr noundef %25, ptr noundef @.str.23, ptr noundef %27, ptr noundef %30)
  br label %34

32:                                               ; preds = %16
  %33 = getelementptr inbounds %class.LogFileOutput, ptr %3, i32 0, i32 10
  store i64 0, ptr %33, align 8
  call void @_ZN13LogFileOutput20increment_file_countEv(ptr noundef nonnull align 8 dereferenceable(360) %3)
  br label %34

34:                                               ; preds = %32, %24
  ret void
}