; Function Attrs: mustprogress nounwind uwtable
define hidden void @_ZN13LogFileOutput6rotateEv(ptr nocapture noundef nonnull align 8 dereferenceable(360) %0) local_unnamed_addr #0 align 2 {
  %2 = getelementptr inbounds i8, ptr %0, i64 160
  %3 = load ptr, ptr %2, align 8
  %4 = tail call i32 @fclose(ptr noundef %3)
  %.not = icmp eq i32 %4, 0
  br i1 %.not, label %17, label %5

5:                                                ; preds = %1
  %6 = load i8, ptr @DisplayVMOutputToStdout, align 1
  %7 = trunc i8 %6 to i1
  %8 = load ptr, ptr @_ZN13defaultStream14_output_streamE, align 8
  %9 = load ptr, ptr @_ZN13defaultStream13_error_streamE, align 8
  %10 = select i1 %7, ptr %8, ptr %9
  %11 = getelementptr inbounds i8, ptr %0, i64 272
  %12 = load ptr, ptr %11, align 8
  %13 = tail call ptr @__errno_location() #15
  %14 = load i32, ptr %13, align 4
  %15 = tail call noundef ptr @_ZN2os8strerrorEi(i32 noundef %14) #13
  %16 = tail call i32 (ptr, ptr, ...) @jio_fprintf(ptr noundef %10, ptr noundef nonnull @.str.22, ptr noundef %12, ptr noundef %15) #13
  br label %17

17:                                               ; preds = %5, %1
  tail call void @_ZN13LogFileOutput7archiveEv(ptr noundef nonnull align 8 dereferenceable(360) %0)
  %18 = getelementptr inbounds i8, ptr %0, i64 272
  %19 = load ptr, ptr %18, align 8
  %20 = tail call noundef ptr @_ZN2os5fopenEPKcS1_(ptr noundef %19, ptr noundef nonnull @.str.4) #13
  store ptr %20, ptr %2, align 8
  %21 = icmp eq ptr %20, null
  br i1 %21, label %22, label %33

22:                                               ; preds = %17
  %23 = load i8, ptr @DisplayVMOutputToStdout, align 1
  %24 = trunc i8 %23 to i1
  %25 = load ptr, ptr @_ZN13defaultStream14_output_streamE, align 8
  %26 = load ptr, ptr @_ZN13defaultStream13_error_streamE, align 8
  %27 = select i1 %24, ptr %25, ptr %26
  %28 = load ptr, ptr %18, align 8
  %29 = tail call ptr @__errno_location() #15
  %30 = load i32, ptr %29, align 4
  %31 = tail call noundef ptr @_ZN2os8strerrorEi(i32 noundef %30) #13
  %32 = tail call i32 (ptr, ptr, ...) @jio_fprintf(ptr noundef %27, ptr noundef nonnull @.str.23, ptr noundef %28, ptr noundef %31) #13
  br label %41

33:                                               ; preds = %17
  %34 = getelementptr inbounds i8, ptr %0, i64 320
  store i64 0, ptr %34, align 8
  %35 = getelementptr inbounds i8, ptr %0, i64 288
  %36 = load i32, ptr %35, align 8
  %37 = add i32 %36, 1
  %38 = getelementptr inbounds i8, ptr %0, i64 292
  %39 = load i32, ptr %38, align 4
  %40 = icmp eq i32 %37, %39
  %spec.store.select.i = select i1 %40, i32 0, i32 %37
  store i32 %spec.store.select.i, ptr %35, align 8
  br label %41

41:                                               ; preds = %33, %22
  ret void
}